target datalayout = "e-m:e-p270:32:32-p271:32:32-p272:64:64-i64:64-i128:128-f80:128-n8:16:32:64-S128"
target triple = "x86_64-pc-linux-gnu"

%struct.QMetaObject = type { %"struct.QMetaObject::Data" }
%"struct.QMetaObject::Data" = type { %"struct.QMetaObject::SuperData", ptr, ptr, ptr, ptr, ptr, ptr }
%"struct.QMetaObject::SuperData" = type { ptr }
%class.QObject = type { ptr, %class.QScopedPointer }
%class.QScopedPointer = type { ptr }
%class.AdditionalToolbarWidgetAction = type { %class.QWidgetAction, ptr }
%class.QWidgetAction = type { %class.QAction }
%class.QAction = type { %class.QObject }
%"class.QMetaObject::Connection" = type { ptr }
%class.QBasicAtomicInteger = type { %"struct.std::atomic" }
%"struct.std::atomic" = type { %"struct.std::__atomic_base" }
%"struct.std::__atomic_base" = type { i32 }
%"class.QtPrivate::QSlotObject" = type { %"class.QtPrivate::QSlotObjectBase", { i64, i64 } }
%"class.QtPrivate::QSlotObjectBase" = type { %class.QAtomicInt, ptr }
%class.QAtomicInt = type { %class.QAtomicInteger }
%class.QAtomicInteger = type { %class.QBasicAtomicInteger }

@_ZTV29AdditionalToolbarWidgetAction = external unnamed_addr constant { [16 x ptr] }, align 8
@mainApp = external global ptr, align 8
@_ZN15MainApplication16staticMetaObjectE = external global %struct.QMetaObject, align 8
@_ZZN9QtPrivate15ConnectionTypesINS_4ListIJiEEELb1EE5typesEvE1t = linkonce_odr constant [2 x i32] [i32 2, i32 0], comdat, align 4

; Function Attrs: mustprogress nounwind uwtable
define linkonce_odr void @_ZNSt13__atomic_baseIiEC2Ei(ptr noundef nonnull align 4 dereferenceable(4) %0, i32 noundef %1) unnamed_addr #2 comdat align 2 {
  %3 = alloca ptr, align 8
  %4 = alloca i32, align 4
  store ptr %0, ptr %3, align 8
  store i32 %1, ptr %4, align 4
  %5 = load ptr, ptr %3, align 8
  %6 = getelementptr inbounds %"struct.std::__atomic_base", ptr %5, i32 0, i32 0
  %7 = load i32, ptr %4, align 4
  store i32 %7, ptr %6, align 4
  ret void
}

; Function Attrs: mustprogress nounwind uwtable
define linkonce_odr void @_ZNSt6atomicIiEC2Ei(ptr noundef nonnull align 4 dereferenceable(4) %0, i32 noundef %1) unnamed_addr #2 comdat align 2 {
  %3 = alloca ptr, align 8
  %4 = alloca i32, align 4
  store ptr %0, ptr %3, align 8
  store i32 %1, ptr %4, align 4
  %5 = load ptr, ptr %3, align 8
  %6 = load i32, ptr %4, align 4
  call void @_ZNSt13__atomic_baseIiEC2Ei(ptr noundef nonnull align 4 dereferenceable(4) %5, i32 noundef %6) #15
  ret void
}

; Function Attrs: mustprogress nounwind uwtable
define linkonce_odr void @_ZN19QBasicAtomicIntegerIiEC2Ei(ptr noundef nonnull align 4 dereferenceable(4) %0, i32 noundef %1) unnamed_addr #2 comdat align 2 {
  %3 = alloca ptr, align 8
  %4 = alloca i32, align 4
  store ptr %0, ptr %3, align 8
  store i32 %1, ptr %4, align 4
  %5 = load ptr, ptr %3, align 8
  %6 = getelementptr inbounds %class.QBasicAtomicInteger, ptr %5, i32 0, i32 0
  %7 = load i32, ptr %4, align 4
  call void @_ZNSt6atomicIiEC2Ei(ptr noundef nonnull align 4 dereferenceable(4) %6, i32 noundef %7) #15
  ret void
}

; Function Attrs: mustprogress nounwind uwtable
define linkonce_odr void @_ZN14QAtomicIntegerIiEC2Ei(ptr noundef nonnull align 4 dereferenceable(4) %0, i32 noundef %1) unnamed_addr #2 comdat align 2 {
  %3 = alloca ptr, align 8
  %4 = alloca i32, align 4
  store ptr %0, ptr %3, align 8
  store i32 %1, ptr %4, align 4
  %5 = load ptr, ptr %3, align 8
  %6 = load i32, ptr %4, align 4
  call void @_ZN19QBasicAtomicIntegerIiEC2Ei(ptr noundef nonnull align 4 dereferenceable(4) %5, i32 noundef %6) #15
  ret void
}

; Function Attrs: mustprogress nounwind uwtable
define linkonce_odr void @_ZN10QAtomicIntC2Ei(ptr noundef nonnull align 4 dereferenceable(4) %0, i32 noundef %1) unnamed_addr #2 comdat align 2 {
  %3 = alloca ptr, align 8
  %4 = alloca i32, align 4
  store ptr %0, ptr %3, align 8
  store i32 %1, ptr %4, align 4
  %5 = load ptr, ptr %3, align 8
  %6 = load i32, ptr %4, align 4
  call void @_ZN14QAtomicIntegerIiEC2Ei(ptr noundef nonnull align 4 dereferenceable(4) %5, i32 noundef %6) #15
  ret void
}

; Function Attrs: mustprogress nounwind uwtable
define linkonce_odr void @_ZN9QtPrivate15QSlotObjectBaseC2EPFviPS0_P7QObjectPPvPbE(ptr noundef nonnull align 8 dereferenceable(16) %0, ptr noundef %1) unnamed_addr #2 comdat align 2 {
  %3 = alloca ptr, align 8
  %4 = alloca ptr, align 8
  store ptr %0, ptr %3, align 8
  store ptr %1, ptr %4, align 8
  %5 = load ptr, ptr %3, align 8
  %6 = getelementptr inbounds %"class.QtPrivate::QSlotObjectBase", ptr %5, i32 0, i32 0
  call void @_ZN10QAtomicIntC2Ei(ptr noundef nonnull align 4 dereferenceable(4) %6, i32 noundef 1) #15
  %7 = getelementptr inbounds %"class.QtPrivate::QSlotObjectBase", ptr %5, i32 0, i32 1
  %8 = load ptr, ptr %4, align 8
  store ptr %8, ptr %7, align 8
  ret void
}

; Function Attrs: mustprogress uwtable
define linkonce_odr void @_ZN9QtPrivate11QSlotObjectIM29AdditionalToolbarWidgetActionFviENS_4ListIJiEEEvEC2ES3_(ptr noundef nonnull align 8 dereferenceable(32) %0, i64 %1, i64 %2) unnamed_addr #0 comdat align 2 {
  %4 = alloca { i64, i64 }, align 8
  %5 = alloca ptr, align 8
  %6 = alloca { i64, i64 }, align 8
  %7 = getelementptr inbounds { i64, i64 }, ptr %4, i32 0, i32 0
  store i64 %1, ptr %7, align 8
  %8 = getelementptr inbounds { i64, i64 }, ptr %4, i32 0, i32 1
  store i64 %2, ptr %8, align 8
  %9 = load { i64, i64 }, ptr %4, align 8
  store ptr %0, ptr %5, align 8
  store { i64, i64 } %9, ptr %6, align 8
  %10 = load ptr, ptr %5, align 8
  call void @_ZN9QtPrivate15QSlotObjectBaseC2EPFviPS0_P7QObjectPPvPbE(ptr noundef nonnull align 8 dereferenceable(16) %10, ptr noundef @_ZN9QtPrivate11QSlotObjectIM29AdditionalToolbarWidgetActionFviENS_4ListIJiEEEvE4implEiPNS_15QSlotObjectBaseEP7QObjectPPvPb)
  %11 = getelementptr inbounds %"class.QtPrivate::QSlotObject", ptr %10, i32 0, i32 1
  %12 = load { i64, i64 }, ptr %6, align 8
  store { i64, i64 } %12, ptr %11, align 8
  ret void
}

; Function Attrs: mustprogress nounwind uwtable
define linkonce_odr noundef ptr @_ZN9QtPrivate15ConnectionTypesINS_4ListIJiEEELb1EE5typesEv() #2 comdat align 2 {
  ret ptr @_ZZN9QtPrivate15ConnectionTypesINS_4ListIJiEEELb1EE5typesEvE1t
}

; Function Attrs: mustprogress uwtable
define linkonce_odr void @_ZN7QObject7connectIM15MainApplicationFviEM29AdditionalToolbarWidgetActionFviEEEN11QMetaObject10ConnectionEPKN9QtPrivate15FunctionPointerIT_E6ObjectESB_PKNSA_IT0_E6ObjectESG_N2Qt14ConnectionTypeE(ptr dead_on_unwind noalias writable sret(%"class.QMetaObject::Connection") align 8 %0, ptr noundef %1, i64 %2, i64 %3, ptr noundef %4, ptr noundef byval({ i64, i64 }) align 8 %5, i32 noundef %6) #0 comdat align 2 personality ptr @__gxx_personality_v0 {
  %8 = alloca ptr, align 8
  %9 = alloca { i64, i64 }, align 8
  %10 = alloca ptr, align 8
  %11 = alloca { i64, i64 }, align 8
  %12 = alloca ptr, align 8
  %13 = alloca { i64, i64 }, align 8
  %14 = alloca i32, align 4
  %15 = alloca ptr, align 8
  %16 = alloca { i64, i64 }, align 8
  %17 = alloca ptr, align 8
  %18 = alloca i32, align 4
  store ptr %0, ptr %8, align 8
  %19 = getelementptr inbounds { i64, i64 }, ptr %9, i32 0, i32 0
  store i64 %2, ptr %19, align 8
  %20 = getelementptr inbounds { i64, i64 }, ptr %9, i32 0, i32 1
  store i64 %3, ptr %20, align 8
  %21 = load { i64, i64 }, ptr %9, align 8
  %22 = load { i64, i64 }, ptr %5, align 8
  store ptr %1, ptr %10, align 8
  store { i64, i64 } %21, ptr %11, align 8
  store ptr %4, ptr %12, align 8
  store { i64, i64 } %22, ptr %13, align 8
  store i32 %6, ptr %14, align 4
  store ptr null, ptr %15, align 8
  %23 = load i32, ptr %14, align 4
  %24 = icmp eq i32 %23, 2
  br i1 %24, label %28, label %25

25:                                               ; preds = %7
  %26 = load i32, ptr %14, align 4
  %27 = icmp eq i32 %26, 3
  br i1 %27, label %28, label %30

28:                                               ; preds = %25, %7
  %29 = call noundef ptr @_ZN9QtPrivate15ConnectionTypesINS_4ListIJiEEELb1EE5typesEv()
  store ptr %29, ptr %15, align 8
  br label %30

30:                                               ; preds = %28, %25
  %31 = load ptr, ptr %10, align 8
  %32 = load ptr, ptr %12, align 8
  %33 = call noalias noundef nonnull ptr @_Znwm(i64 noundef 32) #17
  %34 = load { i64, i64 }, ptr %13, align 8
  store { i64, i64 } %34, ptr %16, align 8
  %35 = getelementptr inbounds { i64, i64 }, ptr %16, i32 0, i32 0
  %36 = load i64, ptr %35, align 8
  %37 = getelementptr inbounds { i64, i64 }, ptr %16, i32 0, i32 1
  %38 = load i64, ptr %37, align 8
  invoke void @_ZN9QtPrivate11QSlotObjectIM29AdditionalToolbarWidgetActionFviENS_4ListIJiEEEvEC2ES3_(ptr noundef nonnull align 8 dereferenceable(32) %33, i64 %36, i64 %38)
          to label %39 unwind label %42

39:                                               ; preds = %30
  %40 = load i32, ptr %14, align 4
  %41 = load ptr, ptr %15, align 8
  call void @_ZN7QObject11connectImplEPKS_PPvS1_S3_PN9QtPrivate15QSlotObjectBaseEN2Qt14ConnectionTypeEPKiPK11QMetaObject(ptr dead_on_unwind writable sret(%"class.QMetaObject::Connection") align 8 %0, ptr noundef %31, ptr noundef %11, ptr noundef %32, ptr noundef %13, ptr noundef %33, i32 noundef %40, ptr noundef %41, ptr noundef @_ZN15MainApplication16staticMetaObjectE)
  ret void

42:                                               ; preds = %30
  %43 = landingpad { ptr, i32 }
          cleanup
  %44 = extractvalue { ptr, i32 } %43, 0
  store ptr %44, ptr %17, align 8
  %45 = extractvalue { ptr, i32 } %43, 1
  store i32 %45, ptr %18, align 4
  call void @_ZdlPv(ptr noundef %33) #16
  br label %46

46:                                               ; preds = %42
  %47 = load ptr, ptr %17, align 8
  %48 = load i32, ptr %18, align 4
  %49 = insertvalue { ptr, i32 } poison, ptr %47, 0
  %50 = insertvalue { ptr, i32 } %49, i32 %48, 1
  resume { ptr, i32 } %50
}

; Function Attrs: mustprogress uwtable
define void @_ZN29AdditionalToolbarWidgetActionC2EP14_ext_toolbar_tP7QObject(ptr noundef nonnull align 8 dereferenceable(24) %0, ptr noundef %1, ptr noundef %2) unnamed_addr #0 align 2 personality ptr @__gxx_personality_v0 {
  %4 = alloca ptr, align 8
  %5 = alloca ptr, align 8
  %6 = alloca ptr, align 8
  %7 = alloca %"class.QMetaObject::Connection", align 8
  %8 = alloca { i64, i64 }, align 8
  %9 = alloca { i64, i64 }, align 8
  %10 = alloca ptr, align 8
  %11 = alloca i32, align 4
  store ptr %0, ptr %4, align 8
  store ptr %1, ptr %5, align 8
  store ptr %2, ptr %6, align 8
  %12 = load ptr, ptr %4, align 8
  %13 = load ptr, ptr %6, align 8
  call void @_ZN13QWidgetActionC2EP7QObject(ptr noundef nonnull align 8 dereferenceable(16) %12, ptr noundef %13)
  store ptr getelementptr inbounds ({ [16 x ptr] }, ptr @_ZTV29AdditionalToolbarWidgetAction, i32 0, i32 0, i32 2), ptr %12, align 8
  %14 = getelementptr inbounds %class.AdditionalToolbarWidgetAction, ptr %12, i32 0, i32 1
  %15 = load ptr, ptr %5, align 8
  store ptr %15, ptr %14, align 8
  %16 = load ptr, ptr @mainApp, align 8
  store { i64, i64 } { i64 ptrtoint (ptr @_ZN15MainApplication13captureActiveEi to i64), i64 0 }, ptr %8, align 8
  %17 = getelementptr inbounds { i64, i64 }, ptr %8, i32 0, i32 0
  %18 = load i64, ptr %17, align 8
  %19 = getelementptr inbounds { i64, i64 }, ptr %8, i32 0, i32 1
  %20 = load i64, ptr %19, align 8
  store { i64, i64 } { i64 ptrtoint (ptr @_ZN29AdditionalToolbarWidgetAction13captureActiveEi to i64), i64 0 }, ptr %9, align 8
  invoke void @_ZN7QObject7connectIM15MainApplicationFviEM29AdditionalToolbarWidgetActionFviEEEN11QMetaObject10ConnectionEPKN9QtPrivate15FunctionPointerIT_E6ObjectESB_PKNSA_IT0_E6ObjectESG_N2Qt14ConnectionTypeE(ptr dead_on_unwind writable sret(%"class.QMetaObject::Connection") align 8 %7, ptr noundef %16, i64 %18, i64 %20, ptr noundef %12, ptr noundef byval({ i64, i64 }) align 8 %9, i32 noundef 0)
          to label %21 unwind label %22

21:                                               ; preds = %3
  call void @_ZN11QMetaObject10ConnectionD1Ev(ptr noundef nonnull align 8 dereferenceable(8) %7) #15
  ret void

22:                                               ; preds = %3
  %23 = landingpad { ptr, i32 }
          cleanup
  %24 = extractvalue { ptr, i32 } %23, 0
  store ptr %24, ptr %10, align 8
  %25 = extractvalue { ptr, i32 } %23, 1
  store i32 %25, ptr %11, align 4
  call void @_ZN13QWidgetActionD2Ev(ptr noundef nonnull align 8 dereferenceable(16) %12) #15
  br label %26

26:                                               ; preds = %22
  %27 = load ptr, ptr %10, align 8
  %28 = load i32, ptr %11, align 4
  %29 = insertvalue { ptr, i32 } poison, ptr %27, 0
  %30 = insertvalue { ptr, i32 } %29, i32 %28, 1
  resume { ptr, i32 } %30
}